target datalayout = "e-m:e-p270:32:32-p271:32:32-p272:64:64-i64:64-i128:128-f80:128-n8:16:32:64-S128"
target triple = "x86_64-pc-linux-gnu"

%"class.std::__cxx11::basic_string" = type { %"struct.std::__cxx11::basic_string<char>::_Alloc_hider", i64, %union.anon }
%"struct.std::__cxx11::basic_string<char>::_Alloc_hider" = type { ptr }
%union.anon = type { i64, [8 x i8] }
%"class.google::protobuf::internal::LogMessage" = type { i32, ptr, i32, %"class.std::__cxx11::basic_string" }
%"class.google::protobuf::internal::LogFinisher" = type { i8 }
%"class.__gnu_cxx::__normal_iterator.5" = type { ptr }

@.str = private unnamed_addr constant [146 x i8] c"generated/home/dtcxzyw/WorkSpace/Projects/compilers/llvm-opt-benchmark/bench/opencv/opencv/3rdparty/protobuf/src/google/protobuf/stubs/strutil.cc\00", align 1
@.str.38 = private unnamed_addr constant [53 x i8] c"CHECK failed: (calc_escaped_size) == (escaped_len): \00", align 1
@.str.45 = private unnamed_addr constant [55 x i8] c"%s: __pos (which is %zu) > this->size() (which is %zu)\00", align 1
@.str.49 = private unnamed_addr constant [20 x i8] c"basic_string::erase\00", align 1

; Function Attrs: mustprogress nounwind uwtable
define linkonce_odr hidden void @_ZNSt11char_traitsIcE6assignERcRKc(ptr noundef nonnull align 1 dereferenceable(1) %0, ptr noundef nonnull align 1 dereferenceable(1) %1) #6 comdat align 2 {
  %3 = alloca ptr, align 8
  %4 = alloca ptr, align 8
  store ptr %0, ptr %3, align 8, !tbaa !8
  store ptr %1, ptr %4, align 8, !tbaa !8
  %5 = load ptr, ptr %4, align 8, !tbaa !8
  %6 = load i8, ptr %5, align 1, !tbaa !10
  %7 = load ptr, ptr %3, align 8, !tbaa !8
  store i8 %6, ptr %7, align 1, !tbaa !10
  ret void
}

; Function Attrs: mustprogress nounwind uwtable
define available_externally void @_ZNSt7__cxx1112basic_stringIcSt11char_traitsIcESaIcEE9_M_lengthEm(ptr noundef nonnull align 8 dereferenceable(32) %0, i64 noundef %1) #6 align 2 {
  %3 = alloca ptr, align 8
  %4 = alloca i64, align 8
  store ptr %0, ptr %3, align 8, !tbaa !3
  store i64 %1, ptr %4, align 8, !tbaa !13
  %5 = load ptr, ptr %3, align 8
  %6 = load i64, ptr %4, align 8, !tbaa !13
  %7 = getelementptr inbounds nuw %"class.std::__cxx11::basic_string", ptr %5, i32 0, i32 1
  store i64 %6, ptr %7, align 8, !tbaa !19
  ret void
}

; Function Attrs: mustprogress nounwind uwtable
define linkonce_odr hidden void @_ZN9__gnu_cxx17__normal_iteratorIPcNSt7__cxx1112basic_stringIcSt11char_traitsIcESaIcEEEEC2ERKS1_(ptr noundef nonnull align 8 dereferenceable(8) %0, ptr noundef nonnull align 8 dereferenceable(8) %1) unnamed_addr #6 comdat align 2 {
  %3 = alloca ptr, align 8
  %4 = alloca ptr, align 8
  store ptr %0, ptr %3, align 8, !tbaa !105
  store ptr %1, ptr %4, align 8, !tbaa !49
  %5 = load ptr, ptr %3, align 8
  %6 = getelementptr inbounds nuw %"class.__gnu_cxx::__normal_iterator.5", ptr %5, i32 0, i32 0
  %7 = load ptr, ptr %4, align 8, !tbaa !49
  %8 = load ptr, ptr %7, align 8, !tbaa !8
  store ptr %8, ptr %6, align 8, !tbaa !107
  ret void
}

; Function Attrs: mustprogress nounwind uwtable
define available_externally noundef ptr @_ZNKSt7__cxx1112basic_stringIcSt11char_traitsIcESaIcEE7_M_dataEv(ptr noundef nonnull align 8 dereferenceable(32) %0) #6 align 2 {
  %2 = alloca ptr, align 8
  store ptr %0, ptr %2, align 8, !tbaa !3
  %3 = load ptr, ptr %2, align 8
  %4 = getelementptr inbounds nuw %"class.std::__cxx11::basic_string", ptr %3, i32 0, i32 0
  %5 = getelementptr inbounds nuw %"struct.std::__cxx11::basic_string<char>::_Alloc_hider", ptr %4, i32 0, i32 0
  %6 = load ptr, ptr %5, align 8, !tbaa !147
  ret ptr %6
}

; Function Attrs: mustprogress nounwind uwtable
define available_externally noundef i64 @_ZNKSt7__cxx1112basic_stringIcSt11char_traitsIcESaIcEE8_M_limitEmm(ptr noundef nonnull align 8 dereferenceable(32) %0, i64 noundef %1, i64 noundef %2) #6 align 2 {
  %4 = alloca ptr, align 8
  %5 = alloca i64, align 8
  %6 = alloca i64, align 8
  %7 = alloca i8, align 1
  store ptr %0, ptr %4, align 8, !tbaa !3
  store i64 %1, ptr %5, align 8, !tbaa !13
  store i64 %2, ptr %6, align 8, !tbaa !13
  %8 = load ptr, ptr %4, align 8
  call void @llvm.lifetime.start.p0(i64 1, ptr %7) #3
  %9 = load i64, ptr %6, align 8, !tbaa !13
  %10 = call noundef i64 @_ZNKSt7__cxx1112basic_stringIcSt11char_traitsIcESaIcEE4sizeEv(ptr noundef nonnull align 8 dereferenceable(32) %8) #3
  %11 = load i64, ptr %5, align 8, !tbaa !13
  %12 = sub i64 %10, %11
  %13 = icmp ult i64 %9, %12
  %14 = zext i1 %13 to i8
  store i8 %14, ptr %7, align 1, !tbaa !22
  %15 = load i8, ptr %7, align 1, !tbaa !22, !range !24, !noundef !25
  %16 = trunc i8 %15 to i1
  br i1 %16, label %17, label %19

17:                                               ; preds = %3
  %18 = load i64, ptr %6, align 8, !tbaa !13
  br label %23

19:                                               ; preds = %3
  %20 = call noundef i64 @_ZNKSt7__cxx1112basic_stringIcSt11char_traitsIcESaIcEE4sizeEv(ptr noundef nonnull align 8 dereferenceable(32) %8) #3
  %21 = load i64, ptr %5, align 8, !tbaa !13
  %22 = sub i64 %20, %21
  br label %23

23:                                               ; preds = %19, %17
  %24 = phi i64 [ %18, %17 ], [ %22, %19 ]
  call void @llvm.lifetime.end.p0(i64 1, ptr %7) #3
  ret i64 %24
}

; Function Attrs: mustprogress uwtable
define available_externally void @_ZNSt7__cxx1112basic_stringIcSt11char_traitsIcESaIcEE13_M_set_lengthEm(ptr noundef nonnull align 8 dereferenceable(32) %0, i64 noundef %1) #4 align 2 {
  %3 = alloca ptr, align 8
  %4 = alloca i64, align 8
  %5 = alloca i8, align 1
  store ptr %0, ptr %3, align 8, !tbaa !3
  store i64 %1, ptr %4, align 8, !tbaa !13
  %6 = load ptr, ptr %3, align 8
  %7 = load i64, ptr %4, align 8, !tbaa !13
  call void @_ZNSt7__cxx1112basic_stringIcSt11char_traitsIcESaIcEE9_M_lengthEm(ptr noundef nonnull align 8 dereferenceable(32) %6, i64 noundef %7)
  %8 = call noundef ptr @_ZNKSt7__cxx1112basic_stringIcSt11char_traitsIcESaIcEE7_M_dataEv(ptr noundef nonnull align 8 dereferenceable(32) %6)
  %9 = load i64, ptr %4, align 8, !tbaa !13
  %10 = getelementptr inbounds nuw i8, ptr %8, i64 %9
  call void @llvm.lifetime.start.p0(i64 1, ptr %5) #3
  store i8 0, ptr %5, align 1, !tbaa !10
  call void @_ZNSt11char_traitsIcE6assignERcRKc(ptr noundef nonnull align 1 dereferenceable(1) %10, ptr noundef nonnull align 1 dereferenceable(1) %5) #3
  call void @llvm.lifetime.end.p0(i64 1, ptr %5) #3
  ret void
}

; Function Attrs: mustprogress uwtable
define available_externally noundef i64 @_ZNKSt7__cxx1112basic_stringIcSt11char_traitsIcESaIcEE8_M_checkEmPKc(ptr noundef nonnull align 8 dereferenceable(32) %0, i64 noundef %1, ptr noundef %2) #4 align 2 {
  %4 = alloca ptr, align 8
  %5 = alloca i64, align 8
  %6 = alloca ptr, align 8
  store ptr %0, ptr %4, align 8, !tbaa !3
  store i64 %1, ptr %5, align 8, !tbaa !13
  store ptr %2, ptr %6, align 8, !tbaa !8
  %7 = load ptr, ptr %4, align 8
  %8 = load i64, ptr %5, align 8, !tbaa !13
  %9 = call noundef i64 @_ZNKSt7__cxx1112basic_stringIcSt11char_traitsIcESaIcEE4sizeEv(ptr noundef nonnull align 8 dereferenceable(32) %7) #3
  %10 = icmp ugt i64 %8, %9
  br i1 %10, label %11, label %15

11:                                               ; preds = %3
  %12 = load ptr, ptr %6, align 8, !tbaa !8
  %13 = load i64, ptr %5, align 8, !tbaa !13
  %14 = call noundef i64 @_ZNKSt7__cxx1112basic_stringIcSt11char_traitsIcESaIcEE4sizeEv(ptr noundef nonnull align 8 dereferenceable(32) %7) #3
  call void (ptr, ...) @_ZSt24__throw_out_of_range_fmtPKcz(ptr noundef @.str.45, ptr noundef %12, i64 noundef %13, i64 noundef %14) #20
  unreachable

15:                                               ; preds = %3
  %16 = load i64, ptr %5, align 8, !tbaa !13
  ret i64 %16
}

; Function Attrs: mustprogress nounwind uwtable
define linkonce_odr hidden noundef nonnull align 1 dereferenceable(1) ptr @_ZNK9__gnu_cxx17__normal_iteratorIPcNSt7__cxx1112basic_stringIcSt11char_traitsIcESaIcEEEEdeEv(ptr noundef nonnull align 8 dereferenceable(8) %0) #6 comdat align 2 {
  %2 = alloca ptr, align 8
  store ptr %0, ptr %2, align 8, !tbaa !105
  %3 = load ptr, ptr %2, align 8
  %4 = getelementptr inbounds nuw %"class.__gnu_cxx::__normal_iterator.5", ptr %3, i32 0, i32 0
  %5 = load ptr, ptr %4, align 8, !tbaa !107
  ret ptr %5
}

; Function Attrs: mustprogress nounwind uwtable
define available_externally ptr @_ZNSt7__cxx1112basic_stringIcSt11char_traitsIcESaIcEE5beginEv(ptr noundef nonnull align 8 dereferenceable(32) %0) #6 align 2 {
  %2 = alloca %"class.__gnu_cxx::__normal_iterator.5", align 8
  %3 = alloca ptr, align 8
  %4 = alloca ptr, align 8
  store ptr %0, ptr %3, align 8, !tbaa !3
  %5 = load ptr, ptr %3, align 8
  call void @llvm.lifetime.start.p0(i64 8, ptr %4) #3
  %6 = call noundef ptr @_ZNKSt7__cxx1112basic_stringIcSt11char_traitsIcESaIcEE7_M_dataEv(ptr noundef nonnull align 8 dereferenceable(32) %5)
  store ptr %6, ptr %4, align 8, !tbaa !8
  call void @_ZN9__gnu_cxx17__normal_iteratorIPcNSt7__cxx1112basic_stringIcSt11char_traitsIcESaIcEEEEC2ERKS1_(ptr noundef nonnull align 8 dereferenceable(8) %2, ptr noundef nonnull align 8 dereferenceable(8) %4) #3
  call void @llvm.lifetime.end.p0(i64 8, ptr %4) #3
  %7 = getelementptr inbounds nuw %"class.__gnu_cxx::__normal_iterator.5", ptr %2, i32 0, i32 0
  %8 = load ptr, ptr %7, align 8
  ret ptr %8
}

; Function Attrs: mustprogress nounwind uwtable
define available_externally noundef zeroext i1 @_ZNKSt7__cxx1112basic_stringIcSt11char_traitsIcESaIcEE5emptyEv(ptr noundef nonnull align 8 dereferenceable(32) %0) #6 align 2 {
  %2 = alloca ptr, align 8
  store ptr %0, ptr %2, align 8, !tbaa !3
  %3 = load ptr, ptr %2, align 8
  %4 = call noundef i64 @_ZNKSt7__cxx1112basic_stringIcSt11char_traitsIcESaIcEE4sizeEv(ptr noundef nonnull align 8 dereferenceable(32) %3) #3
  %5 = icmp eq i64 %4, 0
  ret i1 %5
}

; Function Attrs: mustprogress uwtable
define available_externally noundef nonnull align 8 dereferenceable(32) ptr @_ZNSt7__cxx1112basic_stringIcSt11char_traitsIcESaIcEE5eraseEmm(ptr noundef nonnull align 8 dereferenceable(32) %0, i64 noundef %1, i64 noundef %2) #4 align 2 {
  %4 = alloca ptr, align 8
  %5 = alloca i64, align 8
  %6 = alloca i64, align 8
  store ptr %0, ptr %4, align 8, !tbaa !3
  store i64 %1, ptr %5, align 8, !tbaa !13
  store i64 %2, ptr %6, align 8, !tbaa !13
  %7 = load ptr, ptr %4, align 8
  %8 = load i64, ptr %5, align 8, !tbaa !13
  %9 = call noundef i64 @_ZNKSt7__cxx1112basic_stringIcSt11char_traitsIcESaIcEE8_M_checkEmPKc(ptr noundef nonnull align 8 dereferenceable(32) %7, i64 noundef %8, ptr noundef @.str.49)
  %10 = load i64, ptr %6, align 8, !tbaa !13
  %11 = icmp eq i64 %10, -1
  br i1 %11, label %12, label %14

12:                                               ; preds = %3
  %13 = load i64, ptr %5, align 8, !tbaa !13
  call void @_ZNSt7__cxx1112basic_stringIcSt11char_traitsIcESaIcEE13_M_set_lengthEm(ptr noundef nonnull align 8 dereferenceable(32) %7, i64 noundef %13)
  br label %23

14:                                               ; preds = %3
  %15 = load i64, ptr %6, align 8, !tbaa !13
  %16 = icmp ne i64 %15, 0
  br i1 %16, label %17, label %22

17:                                               ; preds = %14
  %18 = load i64, ptr %5, align 8, !tbaa !13
  %19 = load i64, ptr %5, align 8, !tbaa !13
  %20 = load i64, ptr %6, align 8, !tbaa !13
  %21 = call noundef i64 @_ZNKSt7__cxx1112basic_stringIcSt11char_traitsIcESaIcEE8_M_limitEmm(ptr noundef nonnull align 8 dereferenceable(32) %7, i64 noundef %19, i64 noundef %20) #3
  call void @_ZNSt7__cxx1112basic_stringIcSt11char_traitsIcESaIcEE8_M_eraseEmm(ptr noundef nonnull align 8 dereferenceable(32) %7, i64 noundef %18, i64 noundef %21)
  br label %22

22:                                               ; preds = %17, %14
  br label %23

23:                                               ; preds = %22, %12
  ret ptr %7
}

; Function Attrs: mustprogress nounwind uwtable
define available_externally noundef i64 @_ZNKSt7__cxx1112basic_stringIcSt11char_traitsIcESaIcEE4sizeEv(ptr noundef nonnull align 8 dereferenceable(32) %0) #6 align 2 {
  %2 = alloca ptr, align 8
  store ptr %0, ptr %2, align 8, !tbaa !3
  %3 = load ptr, ptr %2, align 8
  %4 = getelementptr inbounds nuw %"class.std::__cxx11::basic_string", ptr %3, i32 0, i32 1
  %5 = load i64, ptr %4, align 8, !tbaa !19
  ret i64 %5
}

; Function Attrs: inlinehint mustprogress nounwind uwtable
define linkonce_odr hidden noundef ptr @_ZN6google8protobuf15string_as_arrayEPNSt7__cxx1112basic_stringIcSt11char_traitsIcESaIcEEE(ptr noundef %0) #8 comdat {
  %2 = alloca ptr, align 8
  %3 = alloca %"class.__gnu_cxx::__normal_iterator.5", align 8
  store ptr %0, ptr %2, align 8, !tbaa !3
  %4 = load ptr, ptr %2, align 8, !tbaa !3
  %5 = call noundef zeroext i1 @_ZNKSt7__cxx1112basic_stringIcSt11char_traitsIcESaIcEE5emptyEv(ptr noundef nonnull align 8 dereferenceable(32) %4) #3
  call void @llvm.lifetime.start.p0(i64 8, ptr %3) #3
  br i1 %5, label %6, label %7

6:                                                ; preds = %1
  br label %12

7:                                                ; preds = %1
  %8 = load ptr, ptr %2, align 8, !tbaa !3
  %9 = call ptr @_ZNSt7__cxx1112basic_stringIcSt11char_traitsIcESaIcEE5beginEv(ptr noundef nonnull align 8 dereferenceable(32) %8) #3
  %10 = getelementptr inbounds nuw %"class.__gnu_cxx::__normal_iterator.5", ptr %3, i32 0, i32 0
  store ptr %9, ptr %10, align 8
  %11 = call noundef nonnull align 1 dereferenceable(1) ptr @_ZNK9__gnu_cxx17__normal_iteratorIPcNSt7__cxx1112basic_stringIcSt11char_traitsIcESaIcEEEEdeEv(ptr noundef nonnull align 8 dereferenceable(8) %3) #3
  br label %12

12:                                               ; preds = %7, %6
  %13 = phi ptr [ null, %6 ], [ %11, %7 ]
  call void @llvm.lifetime.end.p0(i64 8, ptr %3) #3
  ret ptr %13
}

; Function Attrs: mustprogress uwtable
define available_externally void @_ZNSt7__cxx1112basic_stringIcSt11char_traitsIcESaIcEE6resizeEm(ptr noundef nonnull align 8 dereferenceable(32) %0, i64 noundef %1) #4 align 2 {
  %3 = alloca ptr, align 8
  %4 = alloca i64, align 8
  store ptr %0, ptr %3, align 8, !tbaa !3
  store i64 %1, ptr %4, align 8, !tbaa !13
  %5 = load ptr, ptr %3, align 8
  %6 = load i64, ptr %4, align 8, !tbaa !13
  call void @_ZNSt7__cxx1112basic_stringIcSt11char_traitsIcESaIcEE6resizeEmc(ptr noundef nonnull align 8 dereferenceable(32) %5, i64 noundef %6, i8 noundef signext 0)
  ret void
}

; Function Attrs: mustprogress nounwind uwtable
define hidden noundef i32 @_ZN6google8protobuf25CalculateBase64EscapedLenEib(i32 noundef %0, i1 noundef zeroext %1) #6 {
  %3 = alloca i32, align 4
  %4 = alloca i8, align 1
  %5 = alloca i32, align 4
  store i32 %0, ptr %3, align 4, !tbaa !15
  %6 = zext i1 %1 to i8
  store i8 %6, ptr %4, align 1, !tbaa !22
  call void @llvm.lifetime.start.p0(i64 4, ptr %5) #3
  %7 = load i32, ptr %3, align 4, !tbaa !15
  %8 = sdiv i32 %7, 3
  %9 = mul nsw i32 %8, 4
  store i32 %9, ptr %5, align 4, !tbaa !15
  %10 = load i32, ptr %3, align 4, !tbaa !15
  %11 = srem i32 %10, 3
  %12 = icmp eq i32 %11, 0
  br i1 %12, label %13, label %14

13:                                               ; preds = %2
  br label %37

14:                                               ; preds = %2
  %15 = load i32, ptr %3, align 4, !tbaa !15
  %16 = srem i32 %15, 3
  %17 = icmp eq i32 %16, 1
  br i1 %17, label %18, label %27

18:                                               ; preds = %14
  %19 = load i32, ptr %5, align 4, !tbaa !15
  %20 = add nsw i32 %19, 2
  store i32 %20, ptr %5, align 4, !tbaa !15
  %21 = load i8, ptr %4, align 1, !tbaa !22, !range !24, !noundef !25
  %22 = trunc i8 %21 to i1
  br i1 %22, label %23, label %26

23:                                               ; preds = %18
  %24 = load i32, ptr %5, align 4, !tbaa !15
  %25 = add nsw i32 %24, 2
  store i32 %25, ptr %5, align 4, !tbaa !15
  br label %26

26:                                               ; preds = %23, %18
  br label %36

27:                                               ; preds = %14
  %28 = load i32, ptr %5, align 4, !tbaa !15
  %29 = add nsw i32 %28, 3
  store i32 %29, ptr %5, align 4, !tbaa !15
  %30 = load i8, ptr %4, align 1, !tbaa !22, !range !24, !noundef !25
  %31 = trunc i8 %30 to i1
  br i1 %31, label %32, label %35

32:                                               ; preds = %27
  %33 = load i32, ptr %5, align 4, !tbaa !15
  %34 = add nsw i32 %33, 1
  store i32 %34, ptr %5, align 4, !tbaa !15
  br label %35

35:                                               ; preds = %32, %27
  br label %36

36:                                               ; preds = %35, %26
  br label %37

37:                                               ; preds = %36, %13
  %38 = load i32, ptr %5, align 4, !tbaa !15
  call void @llvm.lifetime.end.p0(i64 4, ptr %5) #3
  ret i32 %38
}

; Function Attrs: mustprogress uwtable
define hidden void @_ZN6google8protobuf20Base64EscapeInternalEPKhiPNSt7__cxx1112basic_stringIcSt11char_traitsIcESaIcEEEbPKc(ptr noundef %0, i32 noundef %1, ptr noundef %2, i1 noundef zeroext %3, ptr noundef %4) #4 personality ptr @__gxx_personality_v0 {
  %6 = alloca ptr, align 8
  %7 = alloca i32, align 4
  %8 = alloca ptr, align 8
  %9 = alloca i8, align 1
  %10 = alloca ptr, align 8
  %11 = alloca i32, align 4
  %12 = alloca i32, align 4
  %13 = alloca %"class.google::protobuf::internal::LogMessage", align 8
  %14 = alloca i1, align 1
  %15 = alloca i1, align 1
  %16 = alloca ptr, align 8
  %17 = alloca i32, align 4
  %18 = alloca %"class.google::protobuf::internal::LogFinisher", align 1
  store ptr %0, ptr %6, align 8, !tbaa !8
  store i32 %1, ptr %7, align 4, !tbaa !15
  store ptr %2, ptr %8, align 8, !tbaa !3
  %19 = zext i1 %3 to i8
  store i8 %19, ptr %9, align 1, !tbaa !22
  store ptr %4, ptr %10, align 8, !tbaa !8
  call void @llvm.lifetime.start.p0(i64 4, ptr %11) #3
  %20 = load i32, ptr %7, align 4, !tbaa !15
  %21 = load i8, ptr %9, align 1, !tbaa !22, !range !24, !noundef !25
  %22 = trunc i8 %21 to i1
  %23 = call noundef i32 @_ZN6google8protobuf25CalculateBase64EscapedLenEib(i32 noundef %20, i1 noundef zeroext %22)
  store i32 %23, ptr %11, align 4, !tbaa !15
  %24 = load ptr, ptr %8, align 8, !tbaa !3
  %25 = load i32, ptr %11, align 4, !tbaa !15
  %26 = sext i32 %25 to i64
  call void @_ZNSt7__cxx1112basic_stringIcSt11char_traitsIcESaIcEE6resizeEm(ptr noundef nonnull align 8 dereferenceable(32) %24, i64 noundef %26)
  call void @llvm.lifetime.start.p0(i64 4, ptr %12) #3
  %27 = load ptr, ptr %6, align 8, !tbaa !8
  %28 = load i32, ptr %7, align 4, !tbaa !15
  %29 = load ptr, ptr %8, align 8, !tbaa !3
  %30 = call noundef ptr @_ZN6google8protobuf15string_as_arrayEPNSt7__cxx1112basic_stringIcSt11char_traitsIcESaIcEEE(ptr noundef %29)
  %31 = load ptr, ptr %8, align 8, !tbaa !3
  %32 = call noundef i64 @_ZNKSt7__cxx1112basic_stringIcSt11char_traitsIcESaIcEE4sizeEv(ptr noundef nonnull align 8 dereferenceable(32) %31) #3
  %33 = trunc i64 %32 to i32
  %34 = load ptr, ptr %10, align 8, !tbaa !8
  %35 = load i8, ptr %9, align 1, !tbaa !22, !range !24, !noundef !25
  %36 = trunc i8 %35 to i1
  %37 = call noundef i32 @_ZN6google8protobuf20Base64EscapeInternalEPKhiPciPKcb(ptr noundef %27, i32 noundef %28, ptr noundef %30, i32 noundef %33, ptr noundef %34, i1 noundef zeroext %36)
  store i32 %37, ptr %12, align 4, !tbaa !15
  br label %38

38:                                               ; preds = %54, %5
  br i1 false, label %39, label %70

39:                                               ; preds = %38
  %40 = load i32, ptr %11, align 4, !tbaa !15
  %41 = load i32, ptr %12, align 4, !tbaa !15
  %42 = icmp eq i32 %40, %41
  store i1 false, ptr %14, align 1
  store i1 false, ptr %15, align 1
  call void @llvm.lifetime.start.p0(i64 1, ptr %18) #3
  br i1 %42, label %43, label %44

43:                                               ; preds = %39
  br label %48

44:                                               ; preds = %39
  call void @llvm.lifetime.start.p0(i64 56, ptr %13) #3
  store i1 true, ptr %14, align 1
  call void @_ZN6google8protobuf8internal10LogMessageC1ENS0_8LogLevelEPKci(ptr noundef nonnull align 8 dereferenceable(56) %13, i32 noundef 3, ptr noundef @.str, i32 noundef 2215)
  store i1 true, ptr %15, align 1
  %45 = invoke noundef nonnull align 8 dereferenceable(56) ptr @_ZN6google8protobuf8internal10LogMessagelsEPKc(ptr noundef nonnull align 8 dereferenceable(56) %13, ptr noundef @.str.38)
          to label %46 unwind label %55

46:                                               ; preds = %44
  invoke void @_ZN6google8protobuf8internal11LogFinisheraSERNS1_10LogMessageE(ptr noundef nonnull align 1 dereferenceable(1) %18, ptr noundef nonnull align 8 dereferenceable(56) %45)
          to label %47 unwind label %59

47:                                               ; preds = %46
  br label %48

48:                                               ; preds = %47, %43
  call void @llvm.lifetime.end.p0(i64 1, ptr %18) #3
  %49 = load i1, ptr %15, align 1
  br i1 %49, label %50, label %51

50:                                               ; preds = %48
  call void @_ZN6google8protobuf8internal10LogMessageD1Ev(ptr noundef nonnull align 8 dereferenceable(56) %13) #3
  br label %51

51:                                               ; preds = %50, %48
  %52 = load i1, ptr %14, align 1
  br i1 %52, label %53, label %54

53:                                               ; preds = %51
  call void @llvm.lifetime.end.p0(i64 56, ptr %13) #3
  br label %54

54:                                               ; preds = %53, %51
  br label %38, !llvm.loop !138

55:                                               ; preds = %44
  %56 = landingpad { ptr, i32 }
          cleanup
  %57 = extractvalue { ptr, i32 } %56, 0
  store ptr %57, ptr %16, align 8
  %58 = extractvalue { ptr, i32 } %56, 1
  store i32 %58, ptr %17, align 4
  br label %63

59:                                               ; preds = %46
  %60 = landingpad { ptr, i32 }
          cleanup
  %61 = extractvalue { ptr, i32 } %60, 0
  store ptr %61, ptr %16, align 8
  %62 = extractvalue { ptr, i32 } %60, 1
  store i32 %62, ptr %17, align 4
  call void @llvm.lifetime.end.p0(i64 1, ptr %18) #3
  br label %63

63:                                               ; preds = %59, %55
  %64 = load i1, ptr %15, align 1
  br i1 %64, label %65, label %66

65:                                               ; preds = %63
  call void @_ZN6google8protobuf8internal10LogMessageD1Ev(ptr noundef nonnull align 8 dereferenceable(56) %13) #3
  br label %66

66:                                               ; preds = %65, %63
  %67 = load i1, ptr %14, align 1
  br i1 %67, label %68, label %69

68:                                               ; preds = %66
  call void @llvm.lifetime.end.p0(i64 56, ptr %13) #3
  br label %69

69:                                               ; preds = %68, %66
  call void @llvm.lifetime.end.p0(i64 4, ptr %12) #3
  call void @llvm.lifetime.end.p0(i64 4, ptr %11) #3
  br label %75

70:                                               ; preds = %38
  %71 = load ptr, ptr %8, align 8, !tbaa !3
  %72 = load i32, ptr %12, align 4, !tbaa !15
  %73 = sext i32 %72 to i64
  %74 = call noundef nonnull align 8 dereferenceable(32) ptr @_ZNSt7__cxx1112basic_stringIcSt11char_traitsIcESaIcEE5eraseEmm(ptr noundef nonnull align 8 dereferenceable(32) %71, i64 noundef %73, i64 noundef -1)
  call void @llvm.lifetime.end.p0(i64 4, ptr %12) #3
  call void @llvm.lifetime.end.p0(i64 4, ptr %11) #3
  ret void

75:                                               ; preds = %69
  %76 = load ptr, ptr %16, align 8
  %77 = load i32, ptr %17, align 4
  %78 = insertvalue { ptr, i32 } poison, ptr %76, 0
  %79 = insertvalue { ptr, i32 } %78, i32 %77, 1
  resume { ptr, i32 } %79
}